target datalayout = "e-m:e-p270:32:32-p271:32:32-p272:64:64-i64:64-i128:128-f80:128-n8:16:32:64-S128"
target triple = "x86_64-pc-linux-gnu"

%struct.test_fixture = type { ptr, ptr, ptr, ptr, ptr, ptr, i32, ptr, ptr, ptr, i32, i32, i32 }

@root = internal global ptr null, align 8
@.str.14 = private unnamed_addr constant [35 x i8] c"../openssl/test/cmp_protect_test.c\00", align 1
@.str.56 = private unnamed_addr constant [36 x i8] c"test_cmp_build_cert_chain_only_root\00", align 1
@.str.88 = private unnamed_addr constant [36 x i8] c"fixture->certs = sk_X509_new_null()\00", align 1
@.str.89 = private unnamed_addr constant [36 x i8] c"fixture->chain = sk_X509_new_null()\00", align 1
@.str.91 = private unnamed_addr constant [35 x i8] c"sk_X509_push(fixture->certs, root)\00", align 1
@.str.95 = private unnamed_addr constant [35 x i8] c"sk_X509_push(fixture->chain, root)\00", align 1

; Function Attrs: nounwind uwtable
define internal void @tear_down(ptr noundef %0) #0 {
  %2 = alloca ptr, align 8
  store ptr %0, ptr %2, align 8, !tbaa !19
  %3 = load ptr, ptr %2, align 8, !tbaa !19
  %4 = icmp ne ptr %3, null
  br i1 %4, label %5, label %27

5:                                                ; preds = %1
  %6 = load ptr, ptr %2, align 8, !tbaa !19
  %7 = getelementptr inbounds nuw %struct.test_fixture, ptr %6, i32 0, i32 1
  %8 = load ptr, ptr %7, align 8, !tbaa !40
  call void @OSSL_CMP_CTX_free(ptr noundef %8)
  %9 = load ptr, ptr %2, align 8, !tbaa !19
  %10 = getelementptr inbounds nuw %struct.test_fixture, ptr %9, i32 0, i32 2
  %11 = load ptr, ptr %10, align 8, !tbaa !23
  call void @OSSL_CMP_MSG_free(ptr noundef %11)
  %12 = load ptr, ptr %2, align 8, !tbaa !19
  %13 = getelementptr inbounds nuw %struct.test_fixture, ptr %12, i32 0, i32 3
  %14 = load ptr, ptr %13, align 8, !tbaa !51
  call void @OSSL_CMP_PKISI_free(ptr noundef %14)
  %15 = load ptr, ptr %2, align 8, !tbaa !19
  %16 = getelementptr inbounds nuw %struct.test_fixture, ptr %15, i32 0, i32 5
  %17 = load ptr, ptr %16, align 8, !tbaa !52
  call void @CRYPTO_free(ptr noundef %17, ptr noundef @.str.14, i32 noundef 46)
  %18 = load ptr, ptr %2, align 8, !tbaa !19
  %19 = getelementptr inbounds nuw %struct.test_fixture, ptr %18, i32 0, i32 8
  %20 = load ptr, ptr %19, align 8, !tbaa !47
  %21 = call ptr @ossl_check_X509_sk_type(ptr noundef %20)
  call void @OPENSSL_sk_free(ptr noundef %21)
  %22 = load ptr, ptr %2, align 8, !tbaa !19
  %23 = getelementptr inbounds nuw %struct.test_fixture, ptr %22, i32 0, i32 9
  %24 = load ptr, ptr %23, align 8, !tbaa !48
  %25 = call ptr @ossl_check_X509_sk_type(ptr noundef %24)
  call void @OPENSSL_sk_free(ptr noundef %25)
  %26 = load ptr, ptr %2, align 8, !tbaa !19
  call void @CRYPTO_free(ptr noundef %26, ptr noundef @.str.14, i32 noundef 50)
  br label %27

27:                                               ; preds = %5, %1
  ret void
}

; Function Attrs: inlinehint nounwind uwtable
define internal ptr @ossl_check_X509_type(ptr noundef %0) #3 {
  %2 = alloca ptr, align 8
  store ptr %0, ptr %2, align 8, !tbaa !11
  %3 = load ptr, ptr %2, align 8, !tbaa !11
  ret ptr %3
}

; Function Attrs: inlinehint nounwind uwtable
define internal ptr @ossl_check_X509_sk_type(ptr noundef %0) #3 {
  %2 = alloca ptr, align 8
  store ptr %0, ptr %2, align 8, !tbaa !54
  %3 = load ptr, ptr %2, align 8, !tbaa !54
  ret ptr %3
}

; Function Attrs: nounwind uwtable
define internal i32 @test_cmp_build_cert_chain_only_root() #0 {
  %1 = alloca i32, align 4
  %2 = alloca ptr, align 8
  %3 = alloca i32, align 4
  %4 = alloca i32, align 4
  call void @llvm.lifetime.start.p0(i64 8, ptr %2) #5
  %5 = call ptr @set_up(ptr noundef @.str.56)
  store ptr %5, ptr %2, align 8, !tbaa !19
  call void @llvm.lifetime.start.p0(i64 4, ptr %3) #5
  store i32 0, ptr %3, align 4, !tbaa !21
  %6 = load ptr, ptr %2, align 8, !tbaa !19
  %7 = icmp eq ptr %6, null
  br i1 %7, label %8, label %9

8:                                                ; preds = %0
  store i32 0, ptr %1, align 4
  store i32 1, ptr %4, align 4
  br label %63

9:                                                ; preds = %0
  %10 = load ptr, ptr %2, align 8, !tbaa !19
  %11 = getelementptr inbounds nuw %struct.test_fixture, ptr %10, i32 0, i32 12
  store i32 1, ptr %11, align 8, !tbaa !43
  %12 = load ptr, ptr %2, align 8, !tbaa !19
  %13 = getelementptr inbounds nuw %struct.test_fixture, ptr %12, i32 0, i32 10
  store i32 0, ptr %13, align 8, !tbaa !45
  %14 = load ptr, ptr @root, align 8, !tbaa !11
  %15 = load ptr, ptr %2, align 8, !tbaa !19
  %16 = getelementptr inbounds nuw %struct.test_fixture, ptr %15, i32 0, i32 7
  store ptr %14, ptr %16, align 8, !tbaa !46
  %17 = call ptr @OPENSSL_sk_new_null()
  %18 = load ptr, ptr %2, align 8, !tbaa !19
  %19 = getelementptr inbounds nuw %struct.test_fixture, ptr %18, i32 0, i32 8
  store ptr %17, ptr %19, align 8, !tbaa !47
  %20 = call i32 @test_ptr(ptr noundef @.str.14, i32 noundef 441, ptr noundef @.str.88, ptr noundef %17)
  %21 = icmp ne i32 %20, 0
  br i1 %21, label %22, label %52

22:                                               ; preds = %9
  %23 = call ptr @OPENSSL_sk_new_null()
  %24 = load ptr, ptr %2, align 8, !tbaa !19
  %25 = getelementptr inbounds nuw %struct.test_fixture, ptr %24, i32 0, i32 9
  store ptr %23, ptr %25, align 8, !tbaa !48
  %26 = call i32 @test_ptr(ptr noundef @.str.14, i32 noundef 442, ptr noundef @.str.89, ptr noundef %23)
  %27 = icmp ne i32 %26, 0
  br i1 %27, label %28, label %52

28:                                               ; preds = %22
  %29 = load ptr, ptr %2, align 8, !tbaa !19
  %30 = getelementptr inbounds nuw %struct.test_fixture, ptr %29, i32 0, i32 8
  %31 = load ptr, ptr %30, align 8, !tbaa !47
  %32 = call ptr @ossl_check_X509_sk_type(ptr noundef %31)
  %33 = load ptr, ptr @root, align 8, !tbaa !11
  %34 = call ptr @ossl_check_X509_type(ptr noundef %33)
  %35 = call i32 @OPENSSL_sk_push(ptr noundef %32, ptr noundef %34)
  %36 = icmp ne i32 %35, 0
  %37 = zext i1 %36 to i32
  %38 = call i32 @test_true(ptr noundef @.str.14, i32 noundef 443, ptr noundef @.str.91, i32 noundef %37)
  %39 = icmp ne i32 %38, 0
  br i1 %39, label %40, label %52

40:                                               ; preds = %28
  %41 = load ptr, ptr %2, align 8, !tbaa !19
  %42 = getelementptr inbounds nuw %struct.test_fixture, ptr %41, i32 0, i32 9
  %43 = load ptr, ptr %42, align 8, !tbaa !48
  %44 = call ptr @ossl_check_X509_sk_type(ptr noundef %43)
  %45 = load ptr, ptr @root, align 8, !tbaa !11
  %46 = call ptr @ossl_check_X509_type(ptr noundef %45)
  %47 = call i32 @OPENSSL_sk_push(ptr noundef %44, ptr noundef %46)
  %48 = icmp ne i32 %47, 0
  %49 = zext i1 %48 to i32
  %50 = call i32 @test_true(ptr noundef @.str.14, i32 noundef 444, ptr noundef @.str.95, i32 noundef %49)
  %51 = icmp ne i32 %50, 0
  br i1 %51, label %54, label %52

52:                                               ; preds = %40, %28, %22, %9
  %53 = load ptr, ptr %2, align 8, !tbaa !19
  call void @tear_down(ptr noundef %53)
  store ptr null, ptr %2, align 8, !tbaa !19
  br label %54

54:                                               ; preds = %52, %40
  %55 = load ptr, ptr %2, align 8, !tbaa !19
  %56 = icmp ne ptr %55, null
  br i1 %56, label %57, label %61

57:                                               ; preds = %54
  %58 = load ptr, ptr %2, align 8, !tbaa !19
  %59 = call i32 @execute_cmp_build_cert_chain_test(ptr noundef %58)
  store i32 %59, ptr %3, align 4, !tbaa !21
  %60 = load ptr, ptr %2, align 8, !tbaa !19
  call void @tear_down(ptr noundef %60)
  br label %61

61:                                               ; preds = %57, %54
  %62 = load i32, ptr %3, align 4, !tbaa !21
  store i32 %62, ptr %1, align 4
  store i32 1, ptr %4, align 4
  br label %63

63:                                               ; preds = %61, %8
  call void @llvm.lifetime.end.p0(i64 4, ptr %3) #5
  call void @llvm.lifetime.end.p0(i64 8, ptr %2) #5
  %64 = load i32, ptr %1, align 4
  ret i32 %64
}